; Function Attrs: nounwind uwtable
define internal range(i32 0, 2) i32 @test_stdname_cipherlist() #0 {
  %1 = tail call fastcc ptr @set_up(ptr noundef nonnull @.str.3)
  %2 = icmp eq ptr %1, null
  br i1 %2, label %20, label %3

3:                                                ; preds = %0
  %4 = getelementptr inbounds nuw i8, ptr %1, i64 8
  %5 = load ptr, ptr %4, align 8, !tbaa !4
  %6 = tail call i32 @SSL_CTX_set_cipher_list(ptr noundef %5, ptr noundef nonnull @.str.26) #3
  %7 = icmp ne i32 %6, 0
  %8 = zext i1 %7 to i32
  %9 = tail call i32 @test_true(ptr noundef nonnull @.str.4, i32 noundef 251, ptr noundef nonnull @.str.25, i32 noundef %8) #3
  %.not = icmp eq i32 %9, 0
  br i1 %.not, label %tear_down.exit, label %10

10:                                               ; preds = %3
  %11 = getelementptr inbounds nuw i8, ptr %1, i64 16
  %12 = load ptr, ptr %11, align 8, !tbaa !11
  %13 = tail call i32 @SSL_CTX_set_cipher_list(ptr noundef %12, ptr noundef nonnull @.str.26) #3
  %14 = icmp ne i32 %13, 0
  %15 = zext i1 %14 to i32
  %16 = tail call i32 @test_true(ptr noundef nonnull @.str.4, i32 noundef 252, ptr noundef nonnull @.str.27, i32 noundef %15) #3
  %.not7 = icmp ne i32 %16, 0
  %spec.select = zext i1 %.not7 to i32
  br label %tear_down.exit

tear_down.exit:                                   ; preds = %10, %3
  %.0 = phi i32 [ 0, %3 ], [ %spec.select, %10 ]
  %17 = load ptr, ptr %4, align 8, !tbaa !4
  tail call void @SSL_CTX_free(ptr noundef %17) #3
  %18 = getelementptr inbounds nuw i8, ptr %1, i64 16
  %19 = load ptr, ptr %18, align 8, !tbaa !11
  tail call void @SSL_CTX_free(ptr noundef %19) #3
  tail call void @llvm.memset.p0.i64(ptr noundef nonnull align 8 dereferenceable(16) %4, i8 0, i64 16, i1 false)
  tail call void @CRYPTO_free(ptr noundef nonnull %1, ptr noundef nonnull @.str.4, i32 noundef 37) #3
  br label %20

20:                                               ; preds = %0, %tear_down.exit
  %.05 = phi i32 [ %.0, %tear_down.exit ], [ 0, %0 ]
  ret i32 %.05
}